(dp1
S'u03013112'
p2
(dp3
S'on'
p4
I1
sS'cookies'
p5
(dp6
S'cflag'
p7
S'13%3A3'
p8
sS'BDUSS'
p9
S'nIzVERpMzhURVQ3SGZobHVtd3gtZkczVnpGLWxDRWs0RHpJb215RlBvTFZwRDVkRVFBQUFBJCQAAAAAAAAAAAEAAAB~OEqydTAzMDEzMTEyAAAAAAAAAAAAAAAAAAAAAAAAAAAAAAAAAAAAAAAAAAAAAAAAAAAAAAAAAAAAAAAAAAAAAAAAANUXF13VFxddR'
p10
sS'Hm_lpvt_7a3960b6f067eb0085b7f96ff5e660b0'
p11
S'1561794610'
p12
sS'PANWEB'
p13
S'1'
sS'BAIDUID'
p14
S'75B54B9AF6F29C2917B727C94A38D556:FG=1'
p15
sS'PANPSC'
p16
S'13672590169998970163%3Ajz2MdbBpuFwOVjKgsC%2BmYTuv496EomYG%2FrHK3x0VKOOjP1a%2BSdZabJpXVAfLeXHb0KWuMbBcaeUF0NtuS%2B%2BZdi78Y3XhlnteWfnWEXrFsFP7L%2FVYhkRgOGPLhvADPmNCIermaD9w8EN3j5cyRAFOLeKEQjOY60ydAQwoaZBLaos%3D'
p17
sS'Hm_lvt_7a3960b6f067eb0085b7f96ff5e660b0'
p18
S'1561794554'
p19
sS'STOKEN'
p20
S'f9f92ab1a7d43bb2ffdb26124e4a797cdfe27e2cda5839721bb59aa075981641'
p21
ssS'capacity'
p22
S'16.7GB/1.0TB'
p23
sS'cwd'
p24
S'/'
ss.